target datalayout = "e-m:e-p270:32:32-p271:32:32-p272:64:64-i64:64-i128:128-f80:128-n8:16:32:64-S128"
target triple = "x86_64-pc-linux-gnu"

%struct.Kit_Sop_t_ = type { i32, i32, ptr }
%struct.Vec_Int_t_ = type { i32, i32, ptr }

; Function Attrs: nounwind uwtable
define internal i32 @Kit_TruthWordNum(i32 noundef %0) #0 {
  %2 = alloca i32, align 4
  store i32 %0, ptr %2, align 4
  %3 = load i32, ptr %2, align 4
  %4 = icmp sle i32 %3, 5
  br i1 %4, label %5, label %6

5:                                                ; preds = %1
  br label %10

6:                                                ; preds = %1
  %7 = load i32, ptr %2, align 4
  %8 = sub nsw i32 %7, 5
  %9 = shl i32 1, %8
  br label %10

10:                                               ; preds = %6, %5
  %11 = phi i32 [ 1, %5 ], [ %9, %6 ]
  ret i32 %11
}

; Function Attrs: nounwind uwtable
define internal void @Vec_IntShrink(ptr noundef %0, i32 noundef %1) #0 {
  %3 = alloca ptr, align 8
  %4 = alloca i32, align 4
  store ptr %0, ptr %3, align 8
  store i32 %1, ptr %4, align 4
  %5 = load i32, ptr %4, align 4
  %6 = load ptr, ptr %3, align 8
  %7 = getelementptr inbounds %struct.Vec_Int_t_, ptr %6, i32 0, i32 1
  store i32 %5, ptr %7, align 4
  ret void
}

; Function Attrs: nounwind uwtable
define internal void @Kit_TruthNot(ptr noundef %0, ptr noundef %1, i32 noundef %2) #0 {
  %4 = alloca ptr, align 8
  %5 = alloca ptr, align 8
  %6 = alloca i32, align 4
  %7 = alloca i32, align 4
  store ptr %0, ptr %4, align 8
  store ptr %1, ptr %5, align 8
  store i32 %2, ptr %6, align 4
  %8 = load i32, ptr %6, align 4
  %9 = call i32 @Kit_TruthWordNum(i32 noundef %8)
  %10 = sub nsw i32 %9, 1
  store i32 %10, ptr %7, align 4
  br label %11

11:                                               ; preds = %25, %3
  %12 = load i32, ptr %7, align 4
  %13 = icmp sge i32 %12, 0
  br i1 %13, label %14, label %28

14:                                               ; preds = %11
  %15 = load ptr, ptr %5, align 8
  %16 = load i32, ptr %7, align 4
  %17 = sext i32 %16 to i64
  %18 = getelementptr inbounds i32, ptr %15, i64 %17
  %19 = load i32, ptr %18, align 4
  %20 = xor i32 %19, -1
  %21 = load ptr, ptr %4, align 8
  %22 = load i32, ptr %7, align 4
  %23 = sext i32 %22 to i64
  %24 = getelementptr inbounds i32, ptr %21, i64 %23
  store i32 %20, ptr %24, align 4
  br label %25

25:                                               ; preds = %14
  %26 = load i32, ptr %7, align 4
  %27 = add nsw i32 %26, -1
  store i32 %27, ptr %7, align 4
  br label %11, !llvm.loop !4

28:                                               ; preds = %11
  ret void
}

; Function Attrs: nounwind uwtable
define internal void @Vec_IntGrow(ptr noundef %0, i32 noundef %1) #0 {
  %3 = alloca ptr, align 8
  %4 = alloca i32, align 4
  store ptr %0, ptr %3, align 8
  store i32 %1, ptr %4, align 4
  %5 = load ptr, ptr %3, align 8
  %6 = getelementptr inbounds %struct.Vec_Int_t_, ptr %5, i32 0, i32 0
  %7 = load i32, ptr %6, align 8
  %8 = load i32, ptr %4, align 4
  %9 = icmp sge i32 %7, %8
  br i1 %9, label %10, label %11

10:                                               ; preds = %2
  br label %36

11:                                               ; preds = %2
  %12 = load ptr, ptr %3, align 8
  %13 = getelementptr inbounds %struct.Vec_Int_t_, ptr %12, i32 0, i32 2
  %14 = load ptr, ptr %13, align 8
  %15 = icmp ne ptr %14, null
  br i1 %15, label %16, label %24

16:                                               ; preds = %11
  %17 = load ptr, ptr %3, align 8
  %18 = getelementptr inbounds %struct.Vec_Int_t_, ptr %17, i32 0, i32 2
  %19 = load ptr, ptr %18, align 8
  %20 = load i32, ptr %4, align 4
  %21 = sext i32 %20 to i64
  %22 = mul i64 4, %21
  %23 = call ptr @realloc(ptr noundef %19, i64 noundef %22) #5
  br label %29

24:                                               ; preds = %11
  %25 = load i32, ptr %4, align 4
  %26 = sext i32 %25 to i64
  %27 = mul i64 4, %26
  %28 = call noalias ptr @malloc(i64 noundef %27) #6
  br label %29

29:                                               ; preds = %24, %16
  %30 = phi ptr [ %23, %16 ], [ %28, %24 ]
  %31 = load ptr, ptr %3, align 8
  %32 = getelementptr inbounds %struct.Vec_Int_t_, ptr %31, i32 0, i32 2
  store ptr %30, ptr %32, align 8
  %33 = load i32, ptr %4, align 4
  %34 = load ptr, ptr %3, align 8
  %35 = getelementptr inbounds %struct.Vec_Int_t_, ptr %34, i32 0, i32 0
  store i32 %33, ptr %35, align 8
  br label %36

36:                                               ; preds = %29, %10
  ret void
}

; Function Attrs: nounwind uwtable
define internal void @Vec_IntClear(ptr noundef %0) #0 {
  %2 = alloca ptr, align 8
  store ptr %0, ptr %2, align 8
  %3 = load ptr, ptr %2, align 8
  %4 = getelementptr inbounds %struct.Vec_Int_t_, ptr %3, i32 0, i32 1
  store i32 0, ptr %4, align 4
  ret void
}

; Function Attrs: nounwind uwtable
define i32 @Kit_TruthIsop2(ptr noundef %0, ptr noundef %1, i32 noundef %2, ptr noundef %3, i32 noundef %4, i32 noundef %5) #0 {
  %7 = alloca i32, align 4
  %8 = alloca ptr, align 8
  %9 = alloca ptr, align 8
  %10 = alloca i32, align 4
  %11 = alloca ptr, align 8
  %12 = alloca i32, align 4
  %13 = alloca i32, align 4
  %14 = alloca %struct.Kit_Sop_t_, align 8
  %15 = alloca ptr, align 8
  %16 = alloca %struct.Kit_Sop_t_, align 8
  %17 = alloca ptr, align 8
  %18 = alloca ptr, align 8
  %19 = alloca i32, align 4
  %20 = alloca i32, align 4
  store ptr %0, ptr %8, align 8
  store ptr %1, ptr %9, align 8
  store i32 %2, ptr %10, align 4
  store ptr %3, ptr %11, align 8
  store i32 %4, ptr %12, align 4
  store i32 %5, ptr %13, align 4
  store ptr %14, ptr %15, align 8
  store ptr %16, ptr %17, align 8
  store i32 0, ptr %19, align 4
  %21 = load ptr, ptr %11, align 8
  call void @Vec_IntClear(ptr noundef %21)
  %22 = load ptr, ptr %11, align 8
  call void @Vec_IntGrow(ptr noundef %22, i32 noundef 1048576)
  %23 = load ptr, ptr %8, align 8
  %24 = load ptr, ptr %8, align 8
  %25 = load i32, ptr %10, align 4
  call void @Kit_TruthNot(ptr noundef %23, ptr noundef %24, i32 noundef %25)
  %26 = load ptr, ptr %9, align 8
  %27 = load ptr, ptr %8, align 8
  %28 = load i32, ptr %10, align 4
  %29 = load ptr, ptr %15, align 8
  %30 = load ptr, ptr %11, align 8
  %31 = call ptr @Kit_TruthIsop_rec(ptr noundef %26, ptr noundef %27, i32 noundef %28, ptr noundef %29, ptr noundef %30)
  store ptr %31, ptr %18, align 8
  %32 = load ptr, ptr %8, align 8
  %33 = load ptr, ptr %8, align 8
  %34 = load i32, ptr %10, align 4
  call void @Kit_TruthNot(ptr noundef %32, ptr noundef %33, i32 noundef %34)
  %35 = load ptr, ptr %15, align 8
  %36 = getelementptr inbounds %struct.Kit_Sop_t_, ptr %35, i32 0, i32 1
  %37 = load i32, ptr %36, align 4
  %38 = icmp eq i32 %37, -1
  br i1 %38, label %39, label %42

39:                                               ; preds = %6
  %40 = load ptr, ptr %11, align 8
  %41 = getelementptr inbounds %struct.Vec_Int_t_, ptr %40, i32 0, i32 1
  store i32 -1, ptr %41, align 4
  store i32 -1, ptr %7, align 4
  br label %161

42:                                               ; preds = %6
  %43 = load ptr, ptr %8, align 8
  %44 = load ptr, ptr %8, align 8
  %45 = load i32, ptr %10, align 4
  call void @Kit_TruthNot(ptr noundef %43, ptr noundef %44, i32 noundef %45)
  %46 = load ptr, ptr %8, align 8
  %47 = load ptr, ptr %8, align 8
  %48 = load i32, ptr %10, align 4
  call void @Kit_TruthNot(ptr noundef %46, ptr noundef %47, i32 noundef %48)
  %49 = load ptr, ptr %15, align 8
  %50 = getelementptr inbounds %struct.Kit_Sop_t_, ptr %49, i32 0, i32 1
  %51 = load i32, ptr %50, align 4
  %52 = icmp eq i32 %51, 0
  br i1 %52, label %65, label %53

53:                                               ; preds = %42
  %54 = load ptr, ptr %15, align 8
  %55 = getelementptr inbounds %struct.Kit_Sop_t_, ptr %54, i32 0, i32 1
  %56 = load i32, ptr %55, align 4
  %57 = icmp eq i32 %56, 1
  br i1 %57, label %58, label %74

58:                                               ; preds = %53
  %59 = load ptr, ptr %15, align 8
  %60 = getelementptr inbounds %struct.Kit_Sop_t_, ptr %59, i32 0, i32 2
  %61 = load ptr, ptr %60, align 8
  %62 = getelementptr inbounds i32, ptr %61, i64 0
  %63 = load i32, ptr %62, align 4
  %64 = icmp eq i32 %63, 0
  br i1 %64, label %65, label %74

65:                                               ; preds = %58, %42
  %66 = load ptr, ptr %11, align 8
  %67 = getelementptr inbounds %struct.Vec_Int_t_, ptr %66, i32 0, i32 2
  %68 = load ptr, ptr %67, align 8
  %69 = getelementptr inbounds i32, ptr %68, i64 0
  store i32 0, ptr %69, align 4
  %70 = load ptr, ptr %11, align 8
  %71 = load ptr, ptr %15, align 8
  %72 = getelementptr inbounds %struct.Kit_Sop_t_, ptr %71, i32 0, i32 1
  %73 = load i32, ptr %72, align 4
  call void @Vec_IntShrink(ptr noundef %70, i32 noundef %73)
  store i32 0, ptr %7, align 4
  br label %161

74:                                               ; preds = %58, %53
  %75 = load i32, ptr %12, align 4
  %76 = icmp ne i32 %75, 0
  br i1 %76, label %77, label %128

77:                                               ; preds = %74
  %78 = load ptr, ptr %9, align 8
  %79 = load ptr, ptr %9, align 8
  %80 = load i32, ptr %10, align 4
  call void @Kit_TruthNot(ptr noundef %78, ptr noundef %79, i32 noundef %80)
  %81 = load ptr, ptr %8, align 8
  %82 = load ptr, ptr %9, align 8
  %83 = load i32, ptr %10, align 4
  %84 = load ptr, ptr %17, align 8
  %85 = load ptr, ptr %11, align 8
  %86 = call ptr @Kit_TruthIsop_rec(ptr noundef %81, ptr noundef %82, i32 noundef %83, ptr noundef %84, ptr noundef %85)
  store ptr %86, ptr %18, align 8
  %87 = load ptr, ptr %9, align 8
  %88 = load ptr, ptr %9, align 8
  %89 = load i32, ptr %10, align 4
  call void @Kit_TruthNot(ptr noundef %87, ptr noundef %88, i32 noundef %89)
  %90 = load ptr, ptr %17, align 8
  %91 = getelementptr inbounds %struct.Kit_Sop_t_, ptr %90, i32 0, i32 1
  %92 = load i32, ptr %91, align 4
  %93 = icmp sge i32 %92, 0
  br i1 %93, label %94, label %127

94:                                               ; preds = %77
  %95 = load ptr, ptr %9, align 8
  %96 = load ptr, ptr %9, align 8
  %97 = load i32, ptr %10, align 4
  call void @Kit_TruthNot(ptr noundef %95, ptr noundef %96, i32 noundef %97)
  %98 = load ptr, ptr %9, align 8
  %99 = load ptr, ptr %9, align 8
  %100 = load i32, ptr %10, align 4
  call void @Kit_TruthNot(ptr noundef %98, ptr noundef %99, i32 noundef %100)
  %101 = load ptr, ptr %15, align 8
  %102 = getelementptr inbounds %struct.Kit_Sop_t_, ptr %101, i32 0, i32 1
  %103 = load i32, ptr %102, align 4
  %104 = load ptr, ptr %17, align 8
  %105 = getelementptr inbounds %struct.Kit_Sop_t_, ptr %104, i32 0, i32 1
  %106 = load i32, ptr %105, align 4
  %107 = icmp sgt i32 %103, %106
  br i1 %107, label %124, label %108

108:                                              ; preds = %94
  %109 = load ptr, ptr %15, align 8
  %110 = getelementptr inbounds %struct.Kit_Sop_t_, ptr %109, i32 0, i32 1
  %111 = load i32, ptr %110, align 4
  %112 = load ptr, ptr %17, align 8
  %113 = getelementptr inbounds %struct.Kit_Sop_t_, ptr %112, i32 0, i32 1
  %114 = load i32, ptr %113, align 4
  %115 = icmp eq i32 %111, %114
  br i1 %115, label %116, label %126

116:                                              ; preds = %108
  %117 = load ptr, ptr %15, align 8
  %118 = getelementptr inbounds %struct.Kit_Sop_t_, ptr %117, i32 0, i32 0
  %119 = load i32, ptr %118, align 8
  %120 = load ptr, ptr %17, align 8
  %121 = getelementptr inbounds %struct.Kit_Sop_t_, ptr %120, i32 0, i32 0
  %122 = load i32, ptr %121, align 8
  %123 = icmp sgt i32 %119, %122
  br i1 %123, label %124, label %126

124:                                              ; preds = %116, %94
  store i32 1, ptr %19, align 4
  %125 = load ptr, ptr %17, align 8
  store ptr %125, ptr %15, align 8
  br label %126

126:                                              ; preds = %124, %116, %108
  br label %127

127:                                              ; preds = %126, %77
  br label %128

128:                                              ; preds = %127, %74
  %129 = load i32, ptr %13, align 4
  %130 = icmp ne i32 %129, 0
  br i1 %130, label %131, label %143

131:                                              ; preds = %128
  %132 = load i32, ptr %10, align 4
  %133 = call i32 @Kit_TruthWordNum(i32 noundef %132)
  store i32 %133, ptr %20, align 4
  %134 = load ptr, ptr %11, align 8
  %135 = getelementptr inbounds %struct.Vec_Int_t_, ptr %134, i32 0, i32 2
  %136 = load ptr, ptr %135, align 8
  %137 = load ptr, ptr %18, align 8
  %138 = load i32, ptr %20, align 4
  %139 = sext i32 %138 to i64
  %140 = mul i64 %139, 4
  call void @llvm.memmove.p0.p0.i64(ptr align 4 %136, ptr align 4 %137, i64 %140, i1 false)
  %141 = load ptr, ptr %11, align 8
  %142 = load i32, ptr %20, align 4
  call void @Vec_IntShrink(ptr noundef %141, i32 noundef %142)
  br label %159

143:                                              ; preds = %128
  %144 = load ptr, ptr %11, align 8
  %145 = getelementptr inbounds %struct.Vec_Int_t_, ptr %144, i32 0, i32 2
  %146 = load ptr, ptr %145, align 8
  %147 = load ptr, ptr %15, align 8
  %148 = getelementptr inbounds %struct.Kit_Sop_t_, ptr %147, i32 0, i32 2
  %149 = load ptr, ptr %148, align 8
  %150 = load ptr, ptr %15, align 8
  %151 = getelementptr inbounds %struct.Kit_Sop_t_, ptr %150, i32 0, i32 1
  %152 = load i32, ptr %151, align 4
  %153 = sext i32 %152 to i64
  %154 = mul i64 %153, 4
  call void @llvm.memmove.p0.p0.i64(ptr align 4 %146, ptr align 4 %149, i64 %154, i1 false)
  %155 = load ptr, ptr %11, align 8
  %156 = load ptr, ptr %15, align 8
  %157 = getelementptr inbounds %struct.Kit_Sop_t_, ptr %156, i32 0, i32 1
  %158 = load i32, ptr %157, align 4
  call void @Vec_IntShrink(ptr noundef %155, i32 noundef %158)
  br label %159

159:                                              ; preds = %143, %131
  %160 = load i32, ptr %19, align 4
  store i32 %160, ptr %7, align 4
  br label %161

161:                                              ; preds = %159, %65, %39
  %162 = load i32, ptr %7, align 4
  ret i32 %162
}