; Function Attrs: nounwind uwtable
define range(i32 -1, 2) i32 @Kit_TruthIsop2(ptr noundef %0, ptr noundef %1, i32 noundef %2, ptr noundef initializes((4, 8)) %3, i32 noundef %4, i32 noundef %5) local_unnamed_addr #0 {
  %7 = alloca %struct.Kit_Sop_t_, align 8
  %8 = alloca %struct.Kit_Sop_t_, align 8
  %9 = getelementptr inbounds nuw i8, ptr %3, i64 4
  store i32 0, ptr %9, align 4
  %10 = load i32, ptr %3, align 8
  %11 = icmp sgt i32 %10, 1048575
  br i1 %11, label %Vec_IntGrow.exit, label %12

12:                                               ; preds = %6
  %13 = getelementptr inbounds nuw i8, ptr %3, i64 8
  %14 = load ptr, ptr %13, align 8
  %.not.i = icmp eq ptr %14, null
  br i1 %.not.i, label %17, label %15

15:                                               ; preds = %12
  %16 = tail call dereferenceable_or_null(4194304) ptr @realloc(ptr noundef nonnull %14, i64 noundef 4194304) #9
  br label %19

17:                                               ; preds = %12
  %18 = tail call noalias dereferenceable_or_null(4194304) ptr @malloc(i64 noundef 4194304) #10
  br label %19

19:                                               ; preds = %17, %15
  %20 = phi ptr [ %16, %15 ], [ %18, %17 ]
  store ptr %20, ptr %13, align 8
  store i32 1048576, ptr %3, align 8
  br label %Vec_IntGrow.exit

Vec_IntGrow.exit:                                 ; preds = %6, %19
  %21 = icmp slt i32 %2, 6
  %22 = add nsw i32 %2, -5
  %23 = shl nuw i32 1, %22
  %spec.select.i = select i1 %21, i32 1, i32 %23
  %24 = icmp sgt i32 %spec.select.i, 0
  br i1 %24, label %select.unfold.preheader.i, label %Kit_TruthNot.exit94.thread

select.unfold.preheader.i:                        ; preds = %Vec_IntGrow.exit
  %25 = zext nneg i32 %spec.select.i to i64
  br label %select.unfold.i

select.unfold.i:                                  ; preds = %select.unfold.i, %select.unfold.preheader.i
  %indvars.iv.i = phi i64 [ %25, %select.unfold.preheader.i ], [ %indvars.iv.next.i, %select.unfold.i ]
  %indvars.iv.next.i = add nsw i64 %indvars.iv.i, -1
  %26 = getelementptr inbounds nuw i32, ptr %0, i64 %indvars.iv.next.i
  %27 = load i32, ptr %26, align 4
  %28 = xor i32 %27, -1
  store i32 %28, ptr %26, align 4
  %29 = icmp samesign ugt i64 %indvars.iv.i, 1
  br i1 %29, label %select.unfold.i, label %Kit_TruthNot.exit, !llvm.loop !4

Kit_TruthNot.exit:                                ; preds = %select.unfold.i
  %30 = call fastcc ptr @Kit_TruthIsop_rec(ptr noundef %1, ptr noundef nonnull %0, i32 noundef %2, ptr noundef %7, ptr noundef nonnull %3)
  br label %select.unfold.i91

select.unfold.i91:                                ; preds = %select.unfold.i91, %Kit_TruthNot.exit
  %indvars.iv.i92 = phi i64 [ %25, %Kit_TruthNot.exit ], [ %indvars.iv.next.i93, %select.unfold.i91 ]
  %indvars.iv.next.i93 = add nsw i64 %indvars.iv.i92, -1
  %31 = getelementptr inbounds nuw i32, ptr %0, i64 %indvars.iv.next.i93
  %32 = load i32, ptr %31, align 4
  %33 = xor i32 %32, -1
  store i32 %33, ptr %31, align 4
  %34 = icmp samesign ugt i64 %indvars.iv.i92, 1
  br i1 %34, label %select.unfold.i91, label %Kit_TruthNot.exit94, !llvm.loop !4

Kit_TruthNot.exit94:                              ; preds = %select.unfold.i91
  %35 = getelementptr inbounds nuw i8, ptr %7, i64 4
  %36 = load i32, ptr %35, align 4
  %37 = icmp eq i32 %36, -1
  %.068.sroa.gep = getelementptr inbounds nuw i8, ptr %8, i64 8
  %.068.sroa.gep69 = getelementptr inbounds nuw i8, ptr %7, i64 8
  %.068.sroa.gep74 = getelementptr inbounds nuw i8, ptr %8, i64 4
  br i1 %37, label %108, label %select.unfold.preheader.i96

Kit_TruthNot.exit94.thread:                       ; preds = %Vec_IntGrow.exit
  %38 = call fastcc ptr @Kit_TruthIsop_rec(ptr noundef %1, ptr noundef %0, i32 noundef %2, ptr noundef %7, ptr noundef nonnull %3)
  %39 = getelementptr inbounds nuw i8, ptr %7, i64 4
  %40 = load i32, ptr %39, align 4
  %41 = icmp eq i32 %40, -1
  %.068.sroa.gep131 = getelementptr inbounds nuw i8, ptr %8, i64 8
  %.068.sroa.gep69132 = getelementptr inbounds nuw i8, ptr %7, i64 8
  %.068.sroa.gep74133 = getelementptr inbounds nuw i8, ptr %8, i64 4
  br i1 %41, label %108, label %Kit_TruthNot.exit106

select.unfold.preheader.i96:                      ; preds = %Kit_TruthNot.exit94
  %42 = zext nneg i32 %spec.select.i to i64
  br label %select.unfold.i97

select.unfold.i97:                                ; preds = %select.unfold.i97, %select.unfold.preheader.i96
  %indvars.iv.i98 = phi i64 [ %42, %select.unfold.preheader.i96 ], [ %indvars.iv.next.i99, %select.unfold.i97 ]
  %indvars.iv.next.i99 = add nsw i64 %indvars.iv.i98, -1
  %43 = getelementptr inbounds nuw i32, ptr %0, i64 %indvars.iv.next.i99
  %44 = load i32, ptr %43, align 4
  %45 = xor i32 %44, -1
  store i32 %45, ptr %43, align 4
  %46 = icmp samesign ugt i64 %indvars.iv.i98, 1
  br i1 %46, label %select.unfold.i97, label %select.unfold.i103, !llvm.loop !4

select.unfold.i103:                               ; preds = %select.unfold.i97, %select.unfold.i103
  %indvars.iv.i104 = phi i64 [ %indvars.iv.next.i105, %select.unfold.i103 ], [ %42, %select.unfold.i97 ]
  %indvars.iv.next.i105 = add nsw i64 %indvars.iv.i104, -1
  %47 = getelementptr inbounds nuw i32, ptr %0, i64 %indvars.iv.next.i105
  %48 = load i32, ptr %47, align 4
  %49 = xor i32 %48, -1
  store i32 %49, ptr %47, align 4
  %50 = icmp samesign ugt i64 %indvars.iv.i104, 1
  br i1 %50, label %select.unfold.i103, label %Kit_TruthNot.exit106, !llvm.loop !4

Kit_TruthNot.exit106:                             ; preds = %select.unfold.i103, %Kit_TruthNot.exit94.thread
  %51 = phi ptr [ %38, %Kit_TruthNot.exit94.thread ], [ %30, %select.unfold.i103 ]
  %52 = phi ptr [ %39, %Kit_TruthNot.exit94.thread ], [ %35, %select.unfold.i103 ]
  %53 = phi i32 [ %40, %Kit_TruthNot.exit94.thread ], [ %36, %select.unfold.i103 ]
  %.068.sroa.gep134142 = phi ptr [ %.068.sroa.gep131, %Kit_TruthNot.exit94.thread ], [ %.068.sroa.gep, %select.unfold.i103 ]
  %.068.sroa.gep69135141 = phi ptr [ %.068.sroa.gep69132, %Kit_TruthNot.exit94.thread ], [ %.068.sroa.gep69, %select.unfold.i103 ]
  %.068.sroa.gep74136140 = phi ptr [ %.068.sroa.gep74133, %Kit_TruthNot.exit94.thread ], [ %.068.sroa.gep74, %select.unfold.i103 ]
  switch i32 %53, label %61 [
    i32 0, label %58
    i32 1, label %54
  ]

54:                                               ; preds = %Kit_TruthNot.exit106
  %55 = load ptr, ptr %.068.sroa.gep69135141, align 8
  %56 = load i32, ptr %55, align 4
  %57 = icmp eq i32 %56, 0
  br i1 %57, label %58, label %61

58:                                               ; preds = %Kit_TruthNot.exit106, %54
  %59 = getelementptr inbounds nuw i8, ptr %3, i64 8
  %60 = load ptr, ptr %59, align 8
  store i32 0, ptr %60, align 4
  br label %108

61:                                               ; preds = %Kit_TruthNot.exit106, %54
  %.not = icmp eq i32 %4, 0
  br i1 %.not, label %97, label %62

62:                                               ; preds = %61
  br i1 %24, label %select.unfold.preheader.i108, label %Kit_TruthNot.exit118.thread

select.unfold.preheader.i108:                     ; preds = %62
  %63 = zext nneg i32 %spec.select.i to i64
  br label %select.unfold.i109

select.unfold.i109:                               ; preds = %select.unfold.i109, %select.unfold.preheader.i108
  %indvars.iv.i110 = phi i64 [ %63, %select.unfold.preheader.i108 ], [ %indvars.iv.next.i111, %select.unfold.i109 ]
  %indvars.iv.next.i111 = add nsw i64 %indvars.iv.i110, -1
  %64 = getelementptr inbounds nuw i32, ptr %1, i64 %indvars.iv.next.i111
  %65 = load i32, ptr %64, align 4
  %66 = xor i32 %65, -1
  store i32 %66, ptr %64, align 4
  %67 = icmp samesign ugt i64 %indvars.iv.i110, 1
  br i1 %67, label %select.unfold.i109, label %Kit_TruthNot.exit112, !llvm.loop !4

Kit_TruthNot.exit112:                             ; preds = %select.unfold.i109
  %68 = call fastcc ptr @Kit_TruthIsop_rec(ptr noundef %0, ptr noundef nonnull %1, i32 noundef %2, ptr noundef %8, ptr noundef nonnull %3)
  br label %select.unfold.i115

select.unfold.i115:                               ; preds = %select.unfold.i115, %Kit_TruthNot.exit112
  %indvars.iv.i116 = phi i64 [ %63, %Kit_TruthNot.exit112 ], [ %indvars.iv.next.i117, %select.unfold.i115 ]
  %indvars.iv.next.i117 = add nsw i64 %indvars.iv.i116, -1
  %69 = getelementptr inbounds nuw i32, ptr %1, i64 %indvars.iv.next.i117
  %70 = load i32, ptr %69, align 4
  %71 = xor i32 %70, -1
  store i32 %71, ptr %69, align 4
  %72 = icmp samesign ugt i64 %indvars.iv.i116, 1
  br i1 %72, label %select.unfold.i115, label %Kit_TruthNot.exit118, !llvm.loop !4

Kit_TruthNot.exit118:                             ; preds = %select.unfold.i115
  %73 = load i32, ptr %.068.sroa.gep74136140, align 4
  %74 = icmp sgt i32 %73, -1
  br i1 %74, label %select.unfold.preheader.i120, label %97

Kit_TruthNot.exit118.thread:                      ; preds = %62
  %75 = call fastcc ptr @Kit_TruthIsop_rec(ptr noundef %0, ptr noundef %1, i32 noundef %2, ptr noundef %8, ptr noundef nonnull %3)
  %76 = load i32, ptr %.068.sroa.gep74136140, align 4
  %77 = icmp sgt i32 %76, -1
  br i1 %77, label %Kit_TruthNot.exit130, label %97

select.unfold.preheader.i120:                     ; preds = %Kit_TruthNot.exit118
  %78 = zext nneg i32 %spec.select.i to i64
  br label %select.unfold.i121

select.unfold.i121:                               ; preds = %select.unfold.i121, %select.unfold.preheader.i120
  %indvars.iv.i122 = phi i64 [ %78, %select.unfold.preheader.i120 ], [ %indvars.iv.next.i123, %select.unfold.i121 ]
  %indvars.iv.next.i123 = add nsw i64 %indvars.iv.i122, -1
  %79 = getelementptr inbounds nuw i32, ptr %1, i64 %indvars.iv.next.i123
  %80 = load i32, ptr %79, align 4
  %81 = xor i32 %80, -1
  store i32 %81, ptr %79, align 4
  %82 = icmp samesign ugt i64 %indvars.iv.i122, 1
  br i1 %82, label %select.unfold.i121, label %select.unfold.i127, !llvm.loop !4

select.unfold.i127:                               ; preds = %select.unfold.i121, %select.unfold.i127
  %indvars.iv.i128 = phi i64 [ %indvars.iv.next.i129, %select.unfold.i127 ], [ %78, %select.unfold.i121 ]
  %indvars.iv.next.i129 = add nsw i64 %indvars.iv.i128, -1
  %83 = getelementptr inbounds nuw i32, ptr %1, i64 %indvars.iv.next.i129
  %84 = load i32, ptr %83, align 4
  %85 = xor i32 %84, -1
  store i32 %85, ptr %83, align 4
  %86 = icmp samesign ugt i64 %indvars.iv.i128, 1
  br i1 %86, label %select.unfold.i127, label %Kit_TruthNot.exit130, !llvm.loop !4

Kit_TruthNot.exit130:                             ; preds = %select.unfold.i127, %Kit_TruthNot.exit118.thread
  %87 = phi ptr [ %75, %Kit_TruthNot.exit118.thread ], [ %68, %select.unfold.i127 ]
  %88 = phi i32 [ %76, %Kit_TruthNot.exit118.thread ], [ %73, %select.unfold.i127 ]
  %89 = icmp sgt i32 %53, %88
  br i1 %89, label %96, label %90

90:                                               ; preds = %Kit_TruthNot.exit130
  %91 = icmp eq i32 %53, %88
  br i1 %91, label %92, label %97

92:                                               ; preds = %90
  %93 = load i32, ptr %7, align 8
  %94 = load i32, ptr %8, align 8
  %95 = icmp sgt i32 %93, %94
  br i1 %95, label %96, label %97

96:                                               ; preds = %92, %Kit_TruthNot.exit130
  br label %97

97:                                               ; preds = %Kit_TruthNot.exit118.thread, %Kit_TruthNot.exit118, %96, %92, %90, %61
  %.068.sroa.phi = phi ptr [ %.068.sroa.gep134142, %96 ], [ %.068.sroa.gep69135141, %92 ], [ %.068.sroa.gep69135141, %90 ], [ %.068.sroa.gep69135141, %Kit_TruthNot.exit118 ], [ %.068.sroa.gep69135141, %61 ], [ %.068.sroa.gep69135141, %Kit_TruthNot.exit118.thread ]
  %.068.sroa.phi79 = phi ptr [ %.068.sroa.gep74136140, %96 ], [ %52, %92 ], [ %52, %90 ], [ %52, %Kit_TruthNot.exit118 ], [ %52, %61 ], [ %52, %Kit_TruthNot.exit118.thread ]
  %.067 = phi ptr [ %87, %96 ], [ %87, %92 ], [ %87, %90 ], [ %68, %Kit_TruthNot.exit118 ], [ %51, %61 ], [ %75, %Kit_TruthNot.exit118.thread ]
  %.066 = phi i32 [ 1, %96 ], [ 0, %92 ], [ 0, %90 ], [ 0, %Kit_TruthNot.exit118 ], [ 0, %61 ], [ 0, %Kit_TruthNot.exit118.thread ]
  %.not88 = icmp eq i32 %5, 0
  %98 = getelementptr inbounds nuw i8, ptr %3, i64 8
  %99 = load ptr, ptr %98, align 8
  br i1 %.not88, label %103, label %100

100:                                              ; preds = %97
  %101 = sext i32 %spec.select.i to i64
  %102 = shl nsw i64 %101, 2
  tail call void @llvm.memmove.p0.p0.i64(ptr noundef nonnull align 4 dereferenceable(1) %99, ptr noundef nonnull align 4 dereferenceable(1) %.067, i64 %102, i1 false)
  br label %108

103:                                              ; preds = %97
  %104 = load ptr, ptr %.068.sroa.phi, align 8
  %105 = load i32, ptr %.068.sroa.phi79, align 4
  %106 = sext i32 %105 to i64
  %107 = shl nsw i64 %106, 2
  tail call void @llvm.memmove.p0.p0.i64(ptr align 4 %99, ptr align 4 %104, i64 %107, i1 false)
  br label %108

108:                                              ; preds = %Kit_TruthNot.exit94, %Kit_TruthNot.exit94.thread, %100, %103, %58
  %spec.select.i.sink = phi i32 [ %spec.select.i, %100 ], [ %105, %103 ], [ %53, %58 ], [ -1, %Kit_TruthNot.exit94.thread ], [ -1, %Kit_TruthNot.exit94 ]
  %.0 = phi i32 [ %.066, %100 ], [ %.066, %103 ], [ 0, %58 ], [ -1, %Kit_TruthNot.exit94.thread ], [ -1, %Kit_TruthNot.exit94 ]
  store i32 %spec.select.i.sink, ptr %9, align 4
  ret i32 %.0
}